; Function Attrs: mustprogress nounwind uwtable
define hidden void @_ZNK13vsubD_memNode4emitEP17C2_MacroAssemblerP13PhaseRegAlloc(ptr noundef nonnull align 8 dereferenceable(96) %0, ptr noundef %1, ptr noundef %2) unnamed_addr #3 align 2 {
  %4 = alloca %class.Address, align 8
  %5 = getelementptr inbounds i8, ptr %0, i64 80
  %6 = load ptr, ptr %5, align 8
  %7 = load ptr, ptr %6, align 8
  %8 = getelementptr inbounds i8, ptr %7, i64 8
  %9 = load ptr, ptr %8, align 8
  %10 = tail call noundef i32 %9(ptr noundef nonnull align 8 dereferenceable(8) %6) #23
  %11 = tail call noundef i32 @_ZN7Matcher22vector_length_in_bytesEPK4Node(ptr noundef nonnull %0) #23
  switch i32 %11, label %14 [
    i32 4, label %_ZL22vector_length_encodingPK4Node.exit
    i32 8, label %_ZL22vector_length_encodingPK4Node.exit
    i32 16, label %_ZL22vector_length_encodingPK4Node.exit
    i32 32, label %12
    i32 64, label %13
  ]

12:                                               ; preds = %3
  br label %_ZL22vector_length_encodingPK4Node.exit

13:                                               ; preds = %3
  br label %_ZL22vector_length_encodingPK4Node.exit

14:                                               ; preds = %3
  %15 = load ptr, ptr @g_assert_poison, align 8
  store i8 88, ptr %15, align 1
  tail call void @_Z28report_should_not_reach_herePKci(ptr noundef nonnull @.str.22, i32 noundef 1228) #24
  unreachable

_ZL22vector_length_encodingPK4Node.exit:          ; preds = %3, %3, %3, %12, %13
  %.0.i.i = phi i32 [ 2, %13 ], [ 1, %12 ], [ 0, %3 ], [ 0, %3 ], [ 0, %3 ]
  %16 = add i32 %10, 2
  %17 = getelementptr inbounds i8, ptr %0, i64 72
  %18 = load ptr, ptr %17, align 8
  %19 = load ptr, ptr %18, align 8
  %20 = getelementptr inbounds i8, ptr %19, i64 32
  %21 = load ptr, ptr %20, align 8
  %22 = tail call noundef i32 %21(ptr noundef nonnull align 8 dereferenceable(8) %18, ptr noundef %2, ptr noundef nonnull %0) #23
  %or.cond.i.i = icmp ult i32 %22, 32
  %spec.select.i.i = select i1 %or.cond.i.i, i32 %22, i32 -1
  %23 = load ptr, ptr %5, align 8
  %24 = load ptr, ptr %23, align 8
  %25 = getelementptr inbounds i8, ptr %24, i64 40
  %26 = load ptr, ptr %25, align 8
  %27 = tail call noundef i32 %26(ptr noundef nonnull align 8 dereferenceable(8) %23, ptr noundef %2, ptr noundef nonnull %0, i32 noundef 2) #23
  %or.cond.i.i13 = icmp ult i32 %27, 32
  %spec.select.i.i14 = select i1 %or.cond.i.i13, i32 %27, i32 -1
  %28 = getelementptr inbounds i8, ptr %0, i64 88
  %29 = load ptr, ptr %28, align 8
  %30 = load ptr, ptr %29, align 8
  %31 = getelementptr inbounds i8, ptr %30, i64 104
  %32 = load ptr, ptr %31, align 8
  %33 = tail call noundef i32 %32(ptr noundef nonnull align 8 dereferenceable(8) %29, ptr noundef %2, ptr noundef nonnull %0, i32 noundef %16) #23
  %34 = load ptr, ptr %28, align 8
  %35 = load ptr, ptr %34, align 8
  %36 = getelementptr inbounds i8, ptr %35, i64 112
  %37 = load ptr, ptr %36, align 8
  %38 = tail call noundef i32 %37(ptr noundef nonnull align 8 dereferenceable(8) %34, ptr noundef %2, ptr noundef nonnull %0, i32 noundef %16) #23
  %39 = load ptr, ptr %28, align 8
  %40 = load ptr, ptr %39, align 8
  %41 = getelementptr inbounds i8, ptr %40, i64 120
  %42 = load ptr, ptr %41, align 8
  %43 = tail call noundef i32 %42(ptr noundef nonnull align 8 dereferenceable(8) %39) #23
  %44 = load ptr, ptr %28, align 8
  %45 = load ptr, ptr %44, align 8
  %46 = getelementptr inbounds i8, ptr %45, i64 128
  %47 = load ptr, ptr %46, align 8
  %48 = tail call noundef i32 %47(ptr noundef nonnull align 8 dereferenceable(8) %44, ptr noundef %2, ptr noundef nonnull %0, i32 noundef %16) #23
  %49 = load ptr, ptr %28, align 8
  %50 = load ptr, ptr %49, align 8
  %51 = getelementptr inbounds i8, ptr %50, i64 136
  %52 = load ptr, ptr %51, align 8
  %53 = tail call noundef i32 %52(ptr noundef nonnull align 8 dereferenceable(8) %49) #23
  call void @_ZN7Address8make_rawEiiiiN9relocInfo9relocTypeE(ptr dead_on_unwind nonnull writable sret(%class.Address) align 8 %4, i32 noundef %33, i32 noundef %38, i32 noundef %43, i32 noundef %48, i32 noundef %53) #23
  call void @_ZN9Assembler6vsubpdE11XMMRegisterS0_7Addressi(ptr noundef nonnull align 8 dereferenceable(40) %1, i32 %spec.select.i.i, i32 %spec.select.i.i14, ptr noundef nonnull %4, i32 noundef %.0.i.i) #23
  ret void
}